target datalayout = "e-m:e-p270:32:32-p271:32:32-p272:64:64-i64:64-i128:128-f80:128-n8:16:32:64-S128"
target triple = "x86_64-pc-linux-gnu"

%struct.PyVarObject = type { %struct._object, i64 }
%struct._object = type { i64, ptr }
%struct._longobject = type { %struct.PyVarObject, [1 x i32] }
%struct.py_annoy = type { %struct._object, i32, ptr }

@_Py_TrueStruct = external global %struct._longobject, align 8

; Function Attrs: inlinehint mustprogress nounwind sspstrong uwtable
define internal void @_ZL10_Py_INCREFP7_object(ptr noundef %0) #6 {
  %2 = alloca ptr, align 8
  store ptr %0, ptr %2, align 8, !tbaa !14
  %3 = load ptr, ptr %2, align 8, !tbaa !14
  %4 = getelementptr inbounds nuw %struct._object, ptr %3, i32 0, i32 0
  %5 = load i64, ptr %4, align 8, !tbaa !45
  %6 = add i64 %5, 1
  store i64 %6, ptr %4, align 8, !tbaa !45
  ret void
}

; Function Attrs: inlinehint mustprogress sspstrong uwtable
define internal noundef ptr @_ZL10_Py_NewRefP7_object(ptr noundef %0) #5 {
  %2 = alloca ptr, align 8
  store ptr %0, ptr %2, align 8, !tbaa !14
  %3 = load ptr, ptr %2, align 8, !tbaa !14
  call void @_ZL10_Py_INCREFP7_object(ptr noundef %3)
  %4 = load ptr, ptr %2, align 8, !tbaa !14
  ret ptr %4
}

; Function Attrs: mustprogress sspstrong uwtable
define internal noundef ptr @_ZL12py_an_unloadP8py_annoy(ptr noundef %0) #2 {
  %2 = alloca ptr, align 8
  %3 = alloca ptr, align 8
  store ptr %0, ptr %3, align 8, !tbaa !31
  %4 = load ptr, ptr %3, align 8, !tbaa !31
  %5 = getelementptr inbounds nuw %struct.py_annoy, ptr %4, i32 0, i32 2
  %6 = load ptr, ptr %5, align 8, !tbaa !36
  %7 = icmp ne ptr %6, null
  br i1 %7, label %9, label %8

8:                                                ; preds = %1
  store ptr null, ptr %2, align 8
  br label %17

9:                                                ; preds = %1
  %10 = load ptr, ptr %3, align 8, !tbaa !31
  %11 = getelementptr inbounds nuw %struct.py_annoy, ptr %10, i32 0, i32 2
  %12 = load ptr, ptr %11, align 8, !tbaa !36
  %13 = load ptr, ptr %12, align 8, !tbaa !40
  %14 = getelementptr inbounds ptr, ptr %13, i64 6
  %15 = load ptr, ptr %14, align 8
  call void %15(ptr noundef nonnull align 8 dereferenceable(8) %12)
  %16 = call noundef ptr @_ZL10_Py_NewRefP7_object(ptr noundef @_Py_TrueStruct)
  store ptr %16, ptr %2, align 8
  br label %17

17:                                               ; preds = %9, %8
  %18 = load ptr, ptr %2, align 8
  ret ptr %18
}