; Function Attrs: mustprogress sspstrong uwtable
define internal noundef ptr @_ZL12py_an_unloadP8py_annoy(ptr noundef readonly captures(none) %0) #2 {
  %2 = getelementptr inbounds nuw i8, ptr %0, i64 24
  %3 = load ptr, ptr %2, align 8, !tbaa !25
  %.not = icmp eq ptr %3, null
  br i1 %.not, label %10, label %4

4:                                                ; preds = %1
  %5 = load ptr, ptr %3, align 8, !tbaa !28
  %6 = getelementptr inbounds nuw i8, ptr %5, i64 48
  %7 = load ptr, ptr %6, align 8
  tail call void %7(ptr noundef nonnull align 8 dereferenceable(8) %3)
  %8 = load i64, ptr @_Py_TrueStruct, align 8, !tbaa !21
  %9 = add i64 %8, 1
  store i64 %9, ptr @_Py_TrueStruct, align 8, !tbaa !21
  br label %10

10:                                               ; preds = %1, %4
  %.0 = phi ptr [ @_Py_TrueStruct, %4 ], [ null, %1 ]
  ret ptr %.0
}